; Function Attrs: mustprogress null_pointer_is_valid sspstrong uwtable
define void @_ZN11CaptureFile8fileNameEv(ptr dead_on_unwind noalias writable sret(%class.QString) align 8 initializes((0, 24)) %0, ptr noundef readonly align 8 captures(none) dereferenceable_or_null(48) %1) local_unnamed_addr #5 align 2 personality ptr @__gxx_personality_v0 {
  %3 = alloca %class.QString, align 8
  %4 = alloca %class.QString, align 8
  %5 = alloca %class.QFileInfo, align 8
  %6 = alloca %class.QString, align 8
  call void @llvm.lifetime.start.p0(i64 24, ptr nonnull %3) #20
  call void @llvm.memset.p0.i64(ptr noundef nonnull align 8 dereferenceable(24) dereferenceable_or_null(24) %3, i8 0, i64 24, i1 false)
  tail call void @llvm.memset.p0.i64(ptr noundef align 8 dereferenceable(24) dereferenceable_or_null(24) %0, i8 0, i64 24, i1 false)
  call void @llvm.lifetime.start.p0(i64 24, ptr nonnull %4) #20
  invoke void @_ZN11CaptureFile8filePathEv(ptr dead_on_unwind nonnull writable sret(%class.QString) align 8 %4, ptr noundef align 8 dereferenceable_or_null(48) %1)
          to label %7 unwind label %32

7:                                                ; preds = %2
  %8 = call noundef align 8 dereferenceable(24) ptr @_ZN7QStringaSERKS_(ptr noundef nonnull align 8 dereferenceable_or_null(24) %3, ptr noundef nonnull align 8 dereferenceable(24) %4) #20
  %9 = load ptr, ptr %4, align 8
  %.not.i.i.i = icmp eq ptr %9, null
  br i1 %.not.i.i.i, label %_ZN7QStringD2Ev.exit, label %_ZN17QArrayDataPointerIDsE5derefEv.exit.i.i

_ZN17QArrayDataPointerIDsE5derefEv.exit.i.i:      ; preds = %7
  %10 = atomicrmw sub ptr %9, i32 1 seq_cst, align 4
  %.not.i.i = icmp eq i32 %10, 1
  br i1 %.not.i.i, label %11, label %_ZN7QStringD2Ev.exit

11:                                               ; preds = %_ZN17QArrayDataPointerIDsE5derefEv.exit.i.i
  %12 = load ptr, ptr %4, align 8
  call void @_ZN10QArrayData10deallocateEPS_xx(ptr noundef %12, i64 noundef 2, i64 noundef 8) #20
  br label %_ZN7QStringD2Ev.exit

_ZN7QStringD2Ev.exit:                             ; preds = %7, %_ZN17QArrayDataPointerIDsE5derefEv.exit.i.i, %11
  call void @llvm.lifetime.end.p0(i64 24, ptr nonnull %4) #20
  %13 = getelementptr inbounds nuw i8, ptr %3, i64 16
  %14 = load i64, ptr %13, align 8
  %15 = icmp eq i64 %14, 0
  br i1 %15, label %39, label %16

16:                                               ; preds = %_ZN7QStringD2Ev.exit
  call void @llvm.lifetime.start.p0(i64 8, ptr nonnull %5) #20
  invoke void @_ZN9QFileInfoC1ERK7QString(ptr noundef nonnull align 8 dereferenceable_or_null(8) %5, ptr noundef nonnull align 8 dereferenceable(24) %3)
          to label %17 unwind label %34

17:                                               ; preds = %16
  call void @llvm.lifetime.start.p0(i64 24, ptr nonnull %6) #20
  invoke void @_ZNK9QFileInfo8fileNameEv(ptr dead_on_unwind nonnull writable sret(%class.QString) align 8 %6, ptr noundef nonnull align 8 dereferenceable_or_null(8) %5)
          to label %18 unwind label %36

18:                                               ; preds = %17
  %19 = load ptr, ptr %0, align 8
  %20 = load ptr, ptr %6, align 8
  store ptr %20, ptr %0, align 8
  store ptr %19, ptr %6, align 8
  %21 = getelementptr inbounds nuw i8, ptr %0, i64 8
  %22 = getelementptr inbounds nuw i8, ptr %6, i64 8
  %23 = load ptr, ptr %21, align 8
  %24 = load ptr, ptr %22, align 8
  store ptr %24, ptr %21, align 8
  store ptr %23, ptr %22, align 8
  %25 = getelementptr inbounds nuw i8, ptr %0, i64 16
  %26 = getelementptr inbounds nuw i8, ptr %6, i64 16
  %27 = load i64, ptr %25, align 8
  %28 = load i64, ptr %26, align 8
  store i64 %28, ptr %25, align 8
  store i64 %27, ptr %26, align 8
  %.not.i.i.i7 = icmp eq ptr %19, null
  br i1 %.not.i.i.i7, label %_ZN7QStringD2Ev.exit10, label %_ZN17QArrayDataPointerIDsE5derefEv.exit.i.i8

_ZN17QArrayDataPointerIDsE5derefEv.exit.i.i8:     ; preds = %18
  %29 = atomicrmw sub ptr %19, i32 1 seq_cst, align 4
  %.not.i.i9 = icmp eq i32 %29, 1
  br i1 %.not.i.i9, label %30, label %_ZN7QStringD2Ev.exit10

30:                                               ; preds = %_ZN17QArrayDataPointerIDsE5derefEv.exit.i.i8
  %31 = load ptr, ptr %6, align 8
  call void @_ZN10QArrayData10deallocateEPS_xx(ptr noundef %31, i64 noundef 2, i64 noundef 8) #20
  br label %_ZN7QStringD2Ev.exit10

_ZN7QStringD2Ev.exit10:                           ; preds = %18, %_ZN17QArrayDataPointerIDsE5derefEv.exit.i.i8, %30
  call void @llvm.lifetime.end.p0(i64 24, ptr nonnull %6) #20
  call void @_ZN9QFileInfoD1Ev(ptr noundef nonnull align 8 dereferenceable_or_null(8) %5) #20
  call void @llvm.lifetime.end.p0(i64 8, ptr nonnull %5) #20
  br label %_ZN7QStringD2Ev.exit14

32:                                               ; preds = %2
  %33 = landingpad { ptr, i32 }
          cleanup
  call void @llvm.lifetime.end.p0(i64 24, ptr nonnull %4) #20
  br label %47

34:                                               ; preds = %16
  %35 = landingpad { ptr, i32 }
          cleanup
  br label %38

36:                                               ; preds = %17
  %37 = landingpad { ptr, i32 }
          cleanup
  call void @llvm.lifetime.end.p0(i64 24, ptr nonnull %6) #20
  call void @_ZN9QFileInfoD1Ev(ptr noundef nonnull align 8 dereferenceable_or_null(8) %5) #20
  br label %38

38:                                               ; preds = %36, %34
  %.pn = phi { ptr, i32 } [ %37, %36 ], [ %35, %34 ]
  call void @llvm.lifetime.end.p0(i64 8, ptr nonnull %5) #20
  br label %47

39:                                               ; preds = %_ZN7QStringD2Ev.exit
  %40 = load ptr, ptr %0, align 8
  %.not.i.i.i11 = icmp eq ptr %40, null
  call void @llvm.memset.p0.i64(ptr noundef align 8 dereferenceable(24) %0, i8 0, i64 24, i1 false)
  br i1 %.not.i.i.i11, label %_ZN7QStringD2Ev.exit14, label %_ZN17QArrayDataPointerIDsE5derefEv.exit.i.i12

_ZN17QArrayDataPointerIDsE5derefEv.exit.i.i12:    ; preds = %39
  %41 = atomicrmw sub ptr %40, i32 1 seq_cst, align 4
  %.not.i.i13 = icmp eq i32 %41, 1
  br i1 %.not.i.i13, label %42, label %_ZN7QStringD2Ev.exit14

42:                                               ; preds = %_ZN17QArrayDataPointerIDsE5derefEv.exit.i.i12
  call void @_ZN10QArrayData10deallocateEPS_xx(ptr noundef nonnull %40, i64 noundef 2, i64 noundef 8) #20
  br label %_ZN7QStringD2Ev.exit14

_ZN7QStringD2Ev.exit14:                           ; preds = %42, %_ZN17QArrayDataPointerIDsE5derefEv.exit.i.i12, %39, %_ZN7QStringD2Ev.exit10
  %43 = load ptr, ptr %3, align 8
  %.not.i.i.i15 = icmp eq ptr %43, null
  br i1 %.not.i.i.i15, label %_ZN7QStringD2Ev.exit18, label %_ZN17QArrayDataPointerIDsE5derefEv.exit.i.i16

_ZN17QArrayDataPointerIDsE5derefEv.exit.i.i16:    ; preds = %_ZN7QStringD2Ev.exit14
  %44 = atomicrmw sub ptr %43, i32 1 seq_cst, align 4
  %.not.i.i17 = icmp eq i32 %44, 1
  br i1 %.not.i.i17, label %45, label %_ZN7QStringD2Ev.exit18

45:                                               ; preds = %_ZN17QArrayDataPointerIDsE5derefEv.exit.i.i16
  %46 = load ptr, ptr %3, align 8
  call void @_ZN10QArrayData10deallocateEPS_xx(ptr noundef %46, i64 noundef 2, i64 noundef 8) #20
  br label %_ZN7QStringD2Ev.exit18

_ZN7QStringD2Ev.exit18:                           ; preds = %_ZN7QStringD2Ev.exit14, %_ZN17QArrayDataPointerIDsE5derefEv.exit.i.i16, %45
  call void @llvm.lifetime.end.p0(i64 24, ptr nonnull %3) #20
  ret void

47:                                               ; preds = %38, %32
  %.pn.pn = phi { ptr, i32 } [ %.pn, %38 ], [ %33, %32 ]
  call void @_ZN7QStringD2Ev(ptr noundef align 8 dereferenceable_or_null(24) %0) #20
  %48 = load ptr, ptr %3, align 8
  %.not.i.i.i19 = icmp eq ptr %48, null
  br i1 %.not.i.i.i19, label %_ZN7QStringD2Ev.exit22, label %_ZN17QArrayDataPointerIDsE5derefEv.exit.i.i20

_ZN17QArrayDataPointerIDsE5derefEv.exit.i.i20:    ; preds = %47
  %49 = atomicrmw sub ptr %48, i32 1 seq_cst, align 4
  %.not.i.i21 = icmp eq i32 %49, 1
  br i1 %.not.i.i21, label %50, label %_ZN7QStringD2Ev.exit22

50:                                               ; preds = %_ZN17QArrayDataPointerIDsE5derefEv.exit.i.i20
  %51 = load ptr, ptr %3, align 8
  call void @_ZN10QArrayData10deallocateEPS_xx(ptr noundef %51, i64 noundef 2, i64 noundef 8) #20
  br label %_ZN7QStringD2Ev.exit22

_ZN7QStringD2Ev.exit22:                           ; preds = %47, %_ZN17QArrayDataPointerIDsE5derefEv.exit.i.i20, %50
  call void @llvm.lifetime.end.p0(i64 24, ptr nonnull %3) #20
  resume { ptr, i32 } %.pn.pn
}